target datalayout = "e-m:e-p270:32:32-p271:32:32-p272:64:64-i64:64-i128:128-f80:128-n8:16:32:64-S128"
target triple = "x86_64-unknown-linux-gnu"

%struct.PostCopyFD = type { i32, ptr, ptr, ptr, ptr }
%struct.timeval = type { i64, i64 }

@trace_events_enabled_count = external global i32, align 4
@message_with_timestamp = external global i8, align 1
@qemu_loglevel = external global i32, align 4
@_TRACE_POSTCOPY_REQUEST_SHARED_PAGE_DSTATE = external global i16, align 2
@.str.50 = private unnamed_addr constant [69 x i8] c"%d@%zu.%06zu:postcopy_request_shared_page for %s in %s offset 0x%lx\0A\00", align 1
@.str.51 = private unnamed_addr constant [56 x i8] c"postcopy_request_shared_page for %s in %s offset 0x%lx\0A\00", align 1
@_TRACE_POSTCOPY_REQUEST_SHARED_PAGE_PRESENT_DSTATE = external global i16, align 2
@.str.52 = private unnamed_addr constant [78 x i8] c"%d@%zu.%06zu:postcopy_request_shared_page_present %s already %s offset 0x%lx\0A\00", align 1
@.str.53 = private unnamed_addr constant [65 x i8] c"postcopy_request_shared_page_present %s already %s offset 0x%lx\0A\00", align 1

; Function Attrs: nounwind sspstrong uwtable
define internal zeroext i1 @qemu_loglevel_mask(i32 noundef %mask) #0 {
entry:
  %mask.addr = alloca i32, align 4
  store i32 %mask, ptr %mask.addr, align 4
  %0 = load i32, ptr @qemu_loglevel, align 4
  %1 = load i32, ptr %mask.addr, align 4
  %and = and i32 %0, %1
  %cmp = icmp ne i32 %and, 0
  ret i1 %cmp
}

; Function Attrs: nounwind sspstrong uwtable
define internal void @_nocheck__trace_postcopy_request_shared_page_present(ptr noundef %sharer, ptr noundef %rb, i64 noundef %rb_offset) #0 {
entry:
  %sharer.addr = alloca ptr, align 8
  %rb.addr = alloca ptr, align 8
  %rb_offset.addr = alloca i64, align 8
  %_now = alloca %struct.timeval, align 8
  store ptr %sharer, ptr %sharer.addr, align 8
  store ptr %rb, ptr %rb.addr, align 8
  store i64 %rb_offset, ptr %rb_offset.addr, align 8
  %0 = load i32, ptr @trace_events_enabled_count, align 4
  %tobool = icmp ne i32 %0, 0
  %lnot = xor i1 %tobool, true
  %lnot1 = xor i1 %lnot, true
  %lnot.ext = zext i1 %lnot1 to i32
  %conv = sext i32 %lnot.ext to i64
  %tobool2 = icmp ne i64 %conv, 0
  br i1 %tobool2, label %land.lhs.true, label %if.end11

land.lhs.true:                                    ; preds = %entry
  %1 = load i16, ptr @_TRACE_POSTCOPY_REQUEST_SHARED_PAGE_PRESENT_DSTATE, align 2
  %conv3 = zext i16 %1 to i32
  %tobool4 = icmp ne i32 %conv3, 0
  br i1 %tobool4, label %land.lhs.true5, label %if.end11

land.lhs.true5:                                   ; preds = %land.lhs.true
  %call = call zeroext i1 @qemu_loglevel_mask(i32 noundef 32768)
  br i1 %call, label %if.then, label %if.end11

if.then:                                          ; preds = %land.lhs.true5
  %2 = load i8, ptr @message_with_timestamp, align 1
  %tobool7 = trunc i8 %2 to i1
  br i1 %tobool7, label %if.then8, label %if.else

if.then8:                                         ; preds = %if.then
  %call9 = call i32 @gettimeofday(ptr noundef %_now, ptr noundef null) #11
  %call10 = call i32 @qemu_get_thread_id()
  %tv_sec = getelementptr inbounds %struct.timeval, ptr %_now, i32 0, i32 0
  %3 = load i64, ptr %tv_sec, align 8
  %tv_usec = getelementptr inbounds %struct.timeval, ptr %_now, i32 0, i32 1
  %4 = load i64, ptr %tv_usec, align 8
  %5 = load ptr, ptr %sharer.addr, align 8
  %6 = load ptr, ptr %rb.addr, align 8
  %7 = load i64, ptr %rb_offset.addr, align 8
  call void (ptr, ...) @qemu_log(ptr noundef @.str.52, i32 noundef %call10, i64 noundef %3, i64 noundef %4, ptr noundef %5, ptr noundef %6, i64 noundef %7)
  br label %if.end

if.else:                                          ; preds = %if.then
  %8 = load ptr, ptr %sharer.addr, align 8
  %9 = load ptr, ptr %rb.addr, align 8
  %10 = load i64, ptr %rb_offset.addr, align 8
  call void (ptr, ...) @qemu_log(ptr noundef @.str.53, ptr noundef %8, ptr noundef %9, i64 noundef %10)
  br label %if.end

if.end:                                           ; preds = %if.else, %if.then8
  br label %if.end11

if.end11:                                         ; preds = %if.end, %land.lhs.true5, %land.lhs.true, %entry
  ret void
}

; Function Attrs: nounwind sspstrong uwtable
define internal void @_nocheck__trace_postcopy_request_shared_page(ptr noundef %sharer, ptr noundef %rb, i64 noundef %rb_offset) #0 {
entry:
  %sharer.addr = alloca ptr, align 8
  %rb.addr = alloca ptr, align 8
  %rb_offset.addr = alloca i64, align 8
  %_now = alloca %struct.timeval, align 8
  store ptr %sharer, ptr %sharer.addr, align 8
  store ptr %rb, ptr %rb.addr, align 8
  store i64 %rb_offset, ptr %rb_offset.addr, align 8
  %0 = load i32, ptr @trace_events_enabled_count, align 4
  %tobool = icmp ne i32 %0, 0
  %lnot = xor i1 %tobool, true
  %lnot1 = xor i1 %lnot, true
  %lnot.ext = zext i1 %lnot1 to i32
  %conv = sext i32 %lnot.ext to i64
  %tobool2 = icmp ne i64 %conv, 0
  br i1 %tobool2, label %land.lhs.true, label %if.end11

land.lhs.true:                                    ; preds = %entry
  %1 = load i16, ptr @_TRACE_POSTCOPY_REQUEST_SHARED_PAGE_DSTATE, align 2
  %conv3 = zext i16 %1 to i32
  %tobool4 = icmp ne i32 %conv3, 0
  br i1 %tobool4, label %land.lhs.true5, label %if.end11

land.lhs.true5:                                   ; preds = %land.lhs.true
  %call = call zeroext i1 @qemu_loglevel_mask(i32 noundef 32768)
  br i1 %call, label %if.then, label %if.end11

if.then:                                          ; preds = %land.lhs.true5
  %2 = load i8, ptr @message_with_timestamp, align 1
  %tobool7 = trunc i8 %2 to i1
  br i1 %tobool7, label %if.then8, label %if.else

if.then8:                                         ; preds = %if.then
  %call9 = call i32 @gettimeofday(ptr noundef %_now, ptr noundef null) #11
  %call10 = call i32 @qemu_get_thread_id()
  %tv_sec = getelementptr inbounds %struct.timeval, ptr %_now, i32 0, i32 0
  %3 = load i64, ptr %tv_sec, align 8
  %tv_usec = getelementptr inbounds %struct.timeval, ptr %_now, i32 0, i32 1
  %4 = load i64, ptr %tv_usec, align 8
  %5 = load ptr, ptr %sharer.addr, align 8
  %6 = load ptr, ptr %rb.addr, align 8
  %7 = load i64, ptr %rb_offset.addr, align 8
  call void (ptr, ...) @qemu_log(ptr noundef @.str.50, i32 noundef %call10, i64 noundef %3, i64 noundef %4, ptr noundef %5, ptr noundef %6, i64 noundef %7)
  br label %if.end

if.else:                                          ; preds = %if.then
  %8 = load ptr, ptr %sharer.addr, align 8
  %9 = load ptr, ptr %rb.addr, align 8
  %10 = load i64, ptr %rb_offset.addr, align 8
  call void (ptr, ...) @qemu_log(ptr noundef @.str.51, ptr noundef %8, ptr noundef %9, i64 noundef %10)
  br label %if.end

if.end:                                           ; preds = %if.else, %if.then8
  br label %if.end11

if.end11:                                         ; preds = %if.end, %land.lhs.true5, %land.lhs.true, %entry
  ret void
}

; Function Attrs: nounwind sspstrong uwtable
define internal void @trace_postcopy_request_shared_page_present(ptr noundef %sharer, ptr noundef %rb, i64 noundef %rb_offset) #0 {
entry:
  %sharer.addr = alloca ptr, align 8
  %rb.addr = alloca ptr, align 8
  %rb_offset.addr = alloca i64, align 8
  store ptr %sharer, ptr %sharer.addr, align 8
  store ptr %rb, ptr %rb.addr, align 8
  store i64 %rb_offset, ptr %rb_offset.addr, align 8
  %0 = load ptr, ptr %sharer.addr, align 8
  %1 = load ptr, ptr %rb.addr, align 8
  %2 = load i64, ptr %rb_offset.addr, align 8
  call void @_nocheck__trace_postcopy_request_shared_page_present(ptr noundef %0, ptr noundef %1, i64 noundef %2)
  ret void
}

; Function Attrs: nounwind sspstrong uwtable
define internal void @trace_postcopy_request_shared_page(ptr noundef %sharer, ptr noundef %rb, i64 noundef %rb_offset) #0 {
entry:
  %sharer.addr = alloca ptr, align 8
  %rb.addr = alloca ptr, align 8
  %rb_offset.addr = alloca i64, align 8
  store ptr %sharer, ptr %sharer.addr, align 8
  store ptr %rb, ptr %rb.addr, align 8
  store i64 %rb_offset, ptr %rb_offset.addr, align 8
  %0 = load ptr, ptr %sharer.addr, align 8
  %1 = load ptr, ptr %rb.addr, align 8
  %2 = load i64, ptr %rb_offset.addr, align 8
  call void @_nocheck__trace_postcopy_request_shared_page(ptr noundef %0, ptr noundef %1, i64 noundef %2)
  ret void
}

; Function Attrs: nounwind sspstrong uwtable
define dso_local i32 @postcopy_request_shared_page(ptr noundef %pcfd, ptr noundef %rb, i64 noundef %client_addr, i64 noundef %rb_offset) #0 {
entry:
  %retval = alloca i32, align 4
  %pcfd.addr = alloca ptr, align 8
  %rb.addr = alloca ptr, align 8
  %client_addr.addr = alloca i64, align 8
  %rb_offset.addr = alloca i64, align 8
  %aligned_rbo = alloca i64, align 8
  %mis = alloca ptr, align 8
  store ptr %pcfd, ptr %pcfd.addr, align 8
  store ptr %rb, ptr %rb.addr, align 8
  store i64 %client_addr, ptr %client_addr.addr, align 8
  store i64 %rb_offset, ptr %rb_offset.addr, align 8
  %0 = load i64, ptr %rb_offset.addr, align 8
  %1 = load ptr, ptr %rb.addr, align 8
  %call = call i64 @qemu_ram_pagesize(ptr noundef %1)
  %sub = sub i64 0, %call
  %and = and i64 %0, %sub
  store i64 %and, ptr %aligned_rbo, align 8
  %call1 = call ptr @migration_incoming_get_current()
  store ptr %call1, ptr %mis, align 8
  %2 = load ptr, ptr %pcfd.addr, align 8
  %idstr = getelementptr inbounds %struct.PostCopyFD, ptr %2, i32 0, i32 4
  %3 = load ptr, ptr %idstr, align 8
  %4 = load ptr, ptr %rb.addr, align 8
  %call2 = call ptr @qemu_ram_get_idstr(ptr noundef %4)
  %5 = load i64, ptr %rb_offset.addr, align 8
  call void @trace_postcopy_request_shared_page(ptr noundef %3, ptr noundef %call2, i64 noundef %5)
  %6 = load ptr, ptr %rb.addr, align 8
  %7 = load i64, ptr %aligned_rbo, align 8
  %call3 = call zeroext i1 @ramblock_recv_bitmap_test_byte_offset(ptr noundef %6, i64 noundef %7)
  br i1 %call3, label %if.then, label %if.end

if.then:                                          ; preds = %entry
  %8 = load ptr, ptr %pcfd.addr, align 8
  %idstr4 = getelementptr inbounds %struct.PostCopyFD, ptr %8, i32 0, i32 4
  %9 = load ptr, ptr %idstr4, align 8
  %10 = load ptr, ptr %rb.addr, align 8
  %call5 = call ptr @qemu_ram_get_idstr(ptr noundef %10)
  %11 = load i64, ptr %rb_offset.addr, align 8
  call void @trace_postcopy_request_shared_page_present(ptr noundef %9, ptr noundef %call5, i64 noundef %11)
  %12 = load ptr, ptr %pcfd.addr, align 8
  %13 = load i64, ptr %client_addr.addr, align 8
  %14 = load ptr, ptr %rb.addr, align 8
  %call6 = call i32 @postcopy_wake_shared(ptr noundef %12, i64 noundef %13, ptr noundef %14)
  store i32 %call6, ptr %retval, align 4
  br label %return

if.end:                                           ; preds = %entry
  %15 = load ptr, ptr %mis, align 8
  %16 = load ptr, ptr %rb.addr, align 8
  %17 = load i64, ptr %aligned_rbo, align 8
  %18 = load i64, ptr %client_addr.addr, align 8
  %call7 = call i32 @postcopy_request_page(ptr noundef %15, ptr noundef %16, i64 noundef %17, i64 noundef %18)
  store i32 0, ptr %retval, align 4
  br label %return

return:                                           ; preds = %if.end, %if.then
  %19 = load i32, ptr %retval, align 4
  ret i32 %19
}