; Function Attrs: nounwind sspstrong uwtable
define dso_local i32 @postcopy_request_shared_page(ptr noundef readonly captures(none) %pcfd, ptr noundef %rb, i64 noundef %client_addr, i64 noundef %rb_offset) local_unnamed_addr #0 {
entry:
  %_now.i.i12 = alloca %struct.timeval, align 8
  %_now.i.i = alloca %struct.timeval, align 8
  %call = tail call i64 @qemu_ram_pagesize(ptr noundef %rb) #16
  %sub = sub i64 0, %call
  %and = and i64 %rb_offset, %sub
  %call1 = tail call ptr @migration_incoming_get_current() #16
  %idstr = getelementptr inbounds nuw i8, ptr %pcfd, i64 32
  %0 = load ptr, ptr %idstr, align 8
  %call2 = tail call ptr @qemu_ram_get_idstr(ptr noundef %rb) #16
  call void @llvm.lifetime.start.p0(i64 16, ptr nonnull %_now.i.i)
  %1 = load i32, ptr @trace_events_enabled_count, align 4
  %tobool.i.i = icmp ne i32 %1, 0
  %2 = load i16, ptr @_TRACE_POSTCOPY_REQUEST_SHARED_PAGE_DSTATE, align 2
  %tobool4.i.i = icmp ne i16 %2, 0
  %or.cond.i.i = select i1 %tobool.i.i, i1 %tobool4.i.i, i1 false
  br i1 %or.cond.i.i, label %land.lhs.true5.i.i, label %trace_postcopy_request_shared_page.exit

land.lhs.true5.i.i:                               ; preds = %entry
  %3 = load i32, ptr @qemu_loglevel, align 4
  %and.i.i.i = and i32 %3, 32768
  %cmp.i.not.i.i = icmp eq i32 %and.i.i.i, 0
  br i1 %cmp.i.not.i.i, label %trace_postcopy_request_shared_page.exit, label %if.then.i.i

if.then.i.i:                                      ; preds = %land.lhs.true5.i.i
  %4 = load i8, ptr @message_with_timestamp, align 1
  %tobool7.i.i = trunc i8 %4 to i1
  br i1 %tobool7.i.i, label %if.then8.i.i, label %if.else.i.i

if.then8.i.i:                                     ; preds = %if.then.i.i
  %call9.i.i = call i32 @gettimeofday(ptr noundef nonnull %_now.i.i, ptr noundef null) #16
  %call10.i.i = tail call i32 @qemu_get_thread_id() #16
  %5 = load i64, ptr %_now.i.i, align 8
  %tv_usec.i.i = getelementptr inbounds nuw i8, ptr %_now.i.i, i64 8
  %6 = load i64, ptr %tv_usec.i.i, align 8
  tail call void (ptr, ...) @qemu_log(ptr noundef nonnull @.str.50, i32 noundef %call10.i.i, i64 noundef %5, i64 noundef %6, ptr noundef %0, ptr noundef %call2, i64 noundef %rb_offset) #16
  br label %trace_postcopy_request_shared_page.exit

if.else.i.i:                                      ; preds = %if.then.i.i
  tail call void (ptr, ...) @qemu_log(ptr noundef nonnull @.str.51, ptr noundef %0, ptr noundef %call2, i64 noundef %rb_offset) #16
  br label %trace_postcopy_request_shared_page.exit

trace_postcopy_request_shared_page.exit:          ; preds = %entry, %land.lhs.true5.i.i, %if.then8.i.i, %if.else.i.i
  call void @llvm.lifetime.end.p0(i64 16, ptr nonnull %_now.i.i)
  %call3 = tail call zeroext i1 @ramblock_recv_bitmap_test_byte_offset(ptr noundef %rb, i64 noundef %and) #16
  br i1 %call3, label %if.then, label %if.end

if.then:                                          ; preds = %trace_postcopy_request_shared_page.exit
  %7 = load ptr, ptr %idstr, align 8
  %call5 = tail call ptr @qemu_ram_get_idstr(ptr noundef %rb) #16
  call void @llvm.lifetime.start.p0(i64 16, ptr nonnull %_now.i.i12)
  %8 = load i32, ptr @trace_events_enabled_count, align 4
  %tobool.i.i13 = icmp ne i32 %8, 0
  %9 = load i16, ptr @_TRACE_POSTCOPY_REQUEST_SHARED_PAGE_PRESENT_DSTATE, align 2
  %tobool4.i.i14 = icmp ne i16 %9, 0
  %or.cond.i.i15 = select i1 %tobool.i.i13, i1 %tobool4.i.i14, i1 false
  br i1 %or.cond.i.i15, label %land.lhs.true5.i.i16, label %trace_postcopy_request_shared_page_present.exit

land.lhs.true5.i.i16:                             ; preds = %if.then
  %10 = load i32, ptr @qemu_loglevel, align 4
  %and.i.i.i17 = and i32 %10, 32768
  %cmp.i.not.i.i18 = icmp eq i32 %and.i.i.i17, 0
  br i1 %cmp.i.not.i.i18, label %trace_postcopy_request_shared_page_present.exit, label %if.then.i.i19

if.then.i.i19:                                    ; preds = %land.lhs.true5.i.i16
  %11 = load i8, ptr @message_with_timestamp, align 1
  %tobool7.i.i20 = trunc i8 %11 to i1
  br i1 %tobool7.i.i20, label %if.then8.i.i22, label %if.else.i.i21

if.then8.i.i22:                                   ; preds = %if.then.i.i19
  %call9.i.i23 = call i32 @gettimeofday(ptr noundef nonnull %_now.i.i12, ptr noundef null) #16
  %call10.i.i24 = tail call i32 @qemu_get_thread_id() #16
  %12 = load i64, ptr %_now.i.i12, align 8
  %tv_usec.i.i25 = getelementptr inbounds nuw i8, ptr %_now.i.i12, i64 8
  %13 = load i64, ptr %tv_usec.i.i25, align 8
  tail call void (ptr, ...) @qemu_log(ptr noundef nonnull @.str.52, i32 noundef %call10.i.i24, i64 noundef %12, i64 noundef %13, ptr noundef %7, ptr noundef %call5, i64 noundef %rb_offset) #16
  br label %trace_postcopy_request_shared_page_present.exit

if.else.i.i21:                                    ; preds = %if.then.i.i19
  tail call void (ptr, ...) @qemu_log(ptr noundef nonnull @.str.53, ptr noundef %7, ptr noundef %call5, i64 noundef %rb_offset) #16
  br label %trace_postcopy_request_shared_page_present.exit

trace_postcopy_request_shared_page_present.exit:  ; preds = %if.then, %land.lhs.true5.i.i16, %if.then8.i.i22, %if.else.i.i21
  call void @llvm.lifetime.end.p0(i64 16, ptr nonnull %_now.i.i12)
  %call6 = tail call i32 @postcopy_wake_shared(ptr noundef nonnull %pcfd, i64 noundef %client_addr, ptr noundef %rb)
  br label %return

if.end:                                           ; preds = %trace_postcopy_request_shared_page.exit
  tail call fastcc void @postcopy_request_page(ptr noundef %call1, ptr noundef %rb, i64 noundef %and, i64 noundef %client_addr)
  br label %return

return:                                           ; preds = %if.end, %trace_postcopy_request_shared_page_present.exit
  %retval.0 = phi i32 [ %call6, %trace_postcopy_request_shared_page_present.exit ], [ 0, %if.end ]
  ret i32 %retval.0
}